; Function Attrs: mustprogress nofree norecurse nosync nounwind willreturn memory(argmem: readwrite) uwtable
define dso_local void @archive_entry_set_devminor(ptr noundef captures(none) initializes((16, 20), (128, 132), (152, 160)) %0, i64 noundef %1) local_unnamed_addr #7 {
  %3 = getelementptr inbounds nuw i8, ptr %0, i64 16
  store i32 0, ptr %3, align 8, !tbaa !78
  %4 = getelementptr inbounds nuw i8, ptr %0, i64 192
  %5 = load i32, ptr %4, align 8, !tbaa !31
  %6 = or i32 %5, 256
  store i32 %6, ptr %4, align 8, !tbaa !31
  %7 = getelementptr inbounds nuw i8, ptr %0, i64 128
  store i32 1, ptr %7, align 8, !tbaa !52
  %8 = getelementptr inbounds nuw i8, ptr %0, i64 152
  store i64 %1, ptr %8, align 8, !tbaa !54
  ret void
}